; Function Attrs: mustprogress uwtable
define void @_ZN6casadi4QrqpC2ERKNSt7__cxx1112basic_stringIcSt11char_traitsIcESaIcEEERKSt3mapIS6_NS_8SparsityESt4lessIS6_ESaISt4pairIS7_SA_EEE(ptr noundef nonnull align 8 dereferenceable(1660) %0, ptr noundef nonnull align 8 dereferenceable(32) %1, ptr noundef nonnull align 1 %2) unnamed_addr #3 align 2 personality ptr @__gxx_personality_v0 {
  tail call void @_ZN6casadi5ConicC2ERKNSt7__cxx1112basic_stringIcSt11char_traitsIcESaIcEEERKSt3mapIS6_NS_8SparsityESt4lessIS6_ESaISt4pairIS7_SA_EEE(ptr noundef nonnull align 8 dereferenceable(1472) %0, ptr noundef nonnull align 8 dereferenceable(32) %1, ptr noundef nonnull align 1 %2)
  store ptr getelementptr inbounds ({ [118 x ptr], [3 x ptr] }, ptr @_ZTVN6casadi4QrqpE, i64 0, i32 0, i64 2), ptr %0, align 8
  %4 = getelementptr inbounds i8, ptr %0, i64 1304
  store ptr getelementptr inbounds ({ [118 x ptr], [3 x ptr] }, ptr @_ZTVN6casadi4QrqpE, i64 0, i32 1, i64 2), ptr %4, align 8
  %5 = getelementptr inbounds i8, ptr %0, i64 1576
  invoke void @_ZN6casadi8SparsityC1Ex(ptr noundef nonnull align 8 dereferenceable(8) %5, i64 noundef 0)
          to label %6 unwind label %14

6:                                                ; preds = %3
  %7 = getelementptr inbounds i8, ptr %0, i64 1584
  invoke void @_ZN6casadi8SparsityC1Ex(ptr noundef nonnull align 8 dereferenceable(8) %7, i64 noundef 0)
          to label %8 unwind label %16

8:                                                ; preds = %6
  %9 = getelementptr inbounds i8, ptr %0, i64 1592
  invoke void @_ZN6casadi8SparsityC1Ex(ptr noundef nonnull align 8 dereferenceable(8) %9, i64 noundef 0)
          to label %10 unwind label %18

10:                                               ; preds = %8
  %11 = getelementptr inbounds i8, ptr %0, i64 1600
  invoke void @_ZN6casadi8SparsityC1Ex(ptr noundef nonnull align 8 dereferenceable(8) %11, i64 noundef 0)
          to label %12 unwind label %20

12:                                               ; preds = %10
  %13 = getelementptr inbounds i8, ptr %0, i64 1608
  tail call void @llvm.memset.p0.i64(ptr noundef nonnull align 8 dereferenceable(48) %13, i8 0, i64 48, i1 false)
  ret void

14:                                               ; preds = %3
  %15 = landingpad { ptr, i32 }
          cleanup
  br label %24

16:                                               ; preds = %6
  %17 = landingpad { ptr, i32 }
          cleanup
  br label %23

18:                                               ; preds = %8
  %19 = landingpad { ptr, i32 }
          cleanup
  br label %22

20:                                               ; preds = %10
  %21 = landingpad { ptr, i32 }
          cleanup
  tail call void @_ZN6casadi12SharedObjectD2Ev(ptr noundef nonnull align 8 dereferenceable(8) %9) #22
  br label %22

22:                                               ; preds = %20, %18
  %.pn = phi { ptr, i32 } [ %21, %20 ], [ %19, %18 ]
  tail call void @_ZN6casadi12SharedObjectD2Ev(ptr noundef nonnull align 8 dereferenceable(8) %7) #22
  br label %23

23:                                               ; preds = %22, %16
  %.pn.pn = phi { ptr, i32 } [ %.pn, %22 ], [ %17, %16 ]
  tail call void @_ZN6casadi12SharedObjectD2Ev(ptr noundef nonnull align 8 dereferenceable(8) %5) #22
  br label %24

24:                                               ; preds = %23, %14
  %.pn.pn.pn = phi { ptr, i32 } [ %.pn.pn, %23 ], [ %15, %14 ]
  tail call void @_ZN6casadi5ConicD2Ev(ptr noundef nonnull align 8 dereferenceable(1472) %0) #22
  resume { ptr, i32 } %.pn.pn.pn
}